; Function Attrs: mustprogress uwtable
define hidden noundef nonnull align 8 dereferenceable(16) ptr @_ZN6google8protobuf7uint128dVERKS1_(ptr noundef nonnull returned align 8 dereferenceable(16) %0, ptr noundef nonnull readonly align 8 captures(none) dereferenceable(16) %1) local_unnamed_addr #3 align 2 {
  %3 = alloca %"class.google::protobuf::uint128", align 8
  %4 = alloca %"class.google::protobuf::uint128", align 8
  call void @llvm.lifetime.start.p0(i64 16, ptr nonnull %3) #14
  call void @llvm.memset.p0.i64(ptr noundef nonnull align 8 dereferenceable(16) %3, i8 0, i64 16, i1 false)
  call void @llvm.lifetime.start.p0(i64 16, ptr nonnull %4) #14
  %.sroa.01.0.copyload = load i64, ptr %0, align 8, !tbaa !3
  %.sroa.22.0..sroa_idx = getelementptr inbounds nuw i8, ptr %0, i64 8
  %.sroa.22.0.copyload = load i64, ptr %.sroa.22.0..sroa_idx, align 8, !tbaa !3
  %.sroa.0.0.copyload = load i64, ptr %1, align 8, !tbaa !3
  %.sroa.2.0..sroa_idx = getelementptr inbounds nuw i8, ptr %1, i64 8
  %.sroa.2.0.copyload = load i64, ptr %.sroa.2.0..sroa_idx, align 8, !tbaa !3
  call void @_ZN6google8protobuf7uint12810DivModImplES1_S1_PS1_S2_(i64 %.sroa.01.0.copyload, i64 %.sroa.22.0.copyload, i64 %.sroa.0.0.copyload, i64 %.sroa.2.0.copyload, ptr noundef nonnull %3, ptr noundef nonnull %4)
  call void @llvm.memcpy.p0.p0.i64(ptr noundef nonnull align 8 dereferenceable(16) %0, ptr noundef nonnull align 8 dereferenceable(16) %3, i64 16, i1 false), !tbaa.struct !9
  call void @llvm.lifetime.end.p0(i64 16, ptr nonnull %4) #14
  call void @llvm.lifetime.end.p0(i64 16, ptr nonnull %3) #14
  ret ptr %0
}